target datalayout = "e-m:e-p270:32:32-p271:32:32-p272:64:64-i64:64-i128:128-f80:128-n8:16:32:64-S128"
target triple = "x86_64-pc-linux-gnu"

%struct.lxb_html_tree = type { ptr, ptr, ptr, ptr, ptr, ptr, ptr, %struct.lxb_html_tree_pending_table_t, ptr, i8, i8, i8, i8, i8, i8, ptr, ptr, ptr, i32, i64 }
%struct.lxb_html_tree_pending_table_t = type { ptr, i8 }

; Function Attrs: inlinehint nounwind uwtable
define internal zeroext i1 @lxb_html_tree_insertion_mode_in_body_xmp(ptr noundef %0, ptr noundef %1) #3 {
  %3 = alloca i1, align 1
  %4 = alloca ptr, align 8
  %5 = alloca ptr, align 8
  %6 = alloca ptr, align 8
  %7 = alloca ptr, align 8
  %8 = alloca i32, align 4
  store ptr %0, ptr %4, align 8, !tbaa !4
  store ptr %1, ptr %5, align 8, !tbaa !9
  call void @llvm.lifetime.start.p0(i64 8, ptr %6) #5
  call void @llvm.lifetime.start.p0(i64 8, ptr %7) #5
  %9 = load ptr, ptr %4, align 8, !tbaa !4
  %10 = call ptr @lxb_html_tree_element_in_scope(ptr noundef %9, i64 noundef 145, i64 noundef 2, i32 noundef 32)
  store ptr %10, ptr %6, align 8, !tbaa !37
  %11 = load ptr, ptr %6, align 8, !tbaa !37
  %12 = icmp ne ptr %11, null
  br i1 %12, label %13, label %16

13:                                               ; preds = %2
  %14 = load ptr, ptr %4, align 8, !tbaa !4
  %15 = load ptr, ptr %5, align 8, !tbaa !9
  call void @lxb_html_tree_close_p_element(ptr noundef %14, ptr noundef %15)
  br label %16

16:                                               ; preds = %13, %2
  %17 = load ptr, ptr %4, align 8, !tbaa !4
  %18 = call i32 @lxb_html_tree_active_formatting_reconstruct_elements(ptr noundef %17)
  %19 = load ptr, ptr %4, align 8, !tbaa !4
  %20 = getelementptr inbounds nuw %struct.lxb_html_tree, ptr %19, i32 0, i32 18
  store i32 %18, ptr %20, align 8, !tbaa !25
  %21 = load ptr, ptr %4, align 8, !tbaa !4
  %22 = getelementptr inbounds nuw %struct.lxb_html_tree, ptr %21, i32 0, i32 18
  %23 = load i32, ptr %22, align 8, !tbaa !25
  %24 = icmp ne i32 %23, 0
  br i1 %24, label %25, label %28

25:                                               ; preds = %16
  %26 = load ptr, ptr %4, align 8, !tbaa !4
  %27 = call zeroext i1 @lxb_html_tree_process_abort(ptr noundef %26)
  store i1 %27, ptr %3, align 1
  store i32 1, ptr %8, align 4
  br label %42

28:                                               ; preds = %16
  %29 = load ptr, ptr %4, align 8, !tbaa !4
  %30 = getelementptr inbounds nuw %struct.lxb_html_tree, ptr %29, i32 0, i32 10
  store i8 0, ptr %30, align 1, !tbaa !28
  %31 = load ptr, ptr %4, align 8, !tbaa !4
  %32 = load ptr, ptr %5, align 8, !tbaa !9
  %33 = call ptr @lxb_html_tree_generic_rawtext_parsing(ptr noundef %31, ptr noundef %32)
  store ptr %33, ptr %7, align 8, !tbaa !40
  %34 = load ptr, ptr %7, align 8, !tbaa !40
  %35 = icmp eq ptr %34, null
  br i1 %35, label %36, label %41

36:                                               ; preds = %28
  %37 = load ptr, ptr %4, align 8, !tbaa !4
  %38 = getelementptr inbounds nuw %struct.lxb_html_tree, ptr %37, i32 0, i32 18
  store i32 2, ptr %38, align 8, !tbaa !25
  %39 = load ptr, ptr %4, align 8, !tbaa !4
  %40 = call zeroext i1 @lxb_html_tree_process_abort(ptr noundef %39)
  store i1 %40, ptr %3, align 1
  store i32 1, ptr %8, align 4
  br label %42

41:                                               ; preds = %28
  store i1 true, ptr %3, align 1
  store i32 1, ptr %8, align 4
  br label %42

42:                                               ; preds = %41, %36, %25
  call void @llvm.lifetime.end.p0(i64 8, ptr %7) #5
  call void @llvm.lifetime.end.p0(i64 8, ptr %6) #5
  %43 = load i1, ptr %3, align 1
  ret i1 %43
}