; Function Attrs: inlinehint nounwind uwtable
define internal fastcc zeroext i1 @lxb_html_tree_insertion_mode_in_body_xmp(ptr noundef %0, ptr noundef %1) unnamed_addr #3 {
  %3 = tail call ptr @lxb_html_tree_element_in_scope(ptr noundef %0, i64 noundef 145, i64 noundef 2, i32 noundef 32) #6
  %.not = icmp eq ptr %3, null
  br i1 %.not, label %5, label %4

4:                                                ; preds = %2
  tail call void @lxb_html_tree_close_p_element(ptr noundef %0, ptr noundef %1) #6
  br label %5

5:                                                ; preds = %4, %2
  %6 = tail call i32 @lxb_html_tree_active_formatting_reconstruct_elements(ptr noundef %0) #6
  %7 = getelementptr inbounds nuw i8, ptr %0, i64 112
  store i32 %6, ptr %7, align 8, !tbaa !22
  %.not15 = icmp eq i32 %6, 0
  br i1 %.not15, label %8, label %.sink.split

8:                                                ; preds = %5
  %9 = getelementptr inbounds nuw i8, ptr %0, i64 81
  store i8 0, ptr %9, align 1, !tbaa !25
  %10 = tail call ptr @lxb_html_tree_generic_rawtext_parsing(ptr noundef nonnull %0, ptr noundef %1) #6
  %11 = icmp eq ptr %10, null
  br i1 %11, label %12, label %14

12:                                               ; preds = %8
  store i32 2, ptr %7, align 8, !tbaa !22
  br label %.sink.split

.sink.split:                                      ; preds = %5, %12
  %13 = tail call zeroext i1 @lxb_html_tree_process_abort(ptr noundef nonnull %0) #6
  br label %14

14:                                               ; preds = %.sink.split, %8
  %.0 = phi i1 [ true, %8 ], [ %13, %.sink.split ]
  ret i1 %.0
}